target datalayout = "e-m:e-p270:32:32-p271:32:32-p272:64:64-i64:64-i128:128-f80:128-n8:16:32:64-S128"
target triple = "x86_64-unknown-linux-gnu"

; Function Attrs: mustprogress uwtable
define void @_ZN6icu_7524FCDUTF8CollationIterator20forwardNumCodePointsEiR10UErrorCode(ptr noundef nonnull align 8 dereferenceable(496) %this, i32 noundef %num, ptr noundef nonnull align 4 dereferenceable(4) %errorCode) unnamed_addr #1 align 2 {
entry:
  %this.addr = alloca ptr, align 8
  %num.addr = alloca i32, align 4
  %errorCode.addr = alloca ptr, align 8
  store ptr %this, ptr %this.addr, align 8
  store i32 %num, ptr %num.addr, align 4
  store ptr %errorCode, ptr %errorCode.addr, align 8
  %this1 = load ptr, ptr %this.addr, align 8
  br label %while.cond

while.cond:                                       ; preds = %while.body, %entry
  %0 = load i32, ptr %num.addr, align 4
  %cmp = icmp sgt i32 %0, 0
  br i1 %cmp, label %land.rhs, label %land.end

land.rhs:                                         ; preds = %while.cond
  %1 = load ptr, ptr %errorCode.addr, align 8
  %call = call noundef i32 @_ZN6icu_7524FCDUTF8CollationIterator13nextCodePointER10UErrorCode(ptr noundef nonnull align 8 dereferenceable(496) %this1, ptr noundef nonnull align 4 dereferenceable(4) %1)
  %cmp2 = icmp sge i32 %call, 0
  br label %land.end

land.end:                                         ; preds = %land.rhs, %while.cond
  %2 = phi i1 [ false, %while.cond ], [ %cmp2, %land.rhs ]
  br i1 %2, label %while.body, label %while.end

while.body:                                       ; preds = %land.end
  %3 = load i32, ptr %num.addr, align 4
  %dec = add nsw i32 %3, -1
  store i32 %dec, ptr %num.addr, align 4
  br label %while.cond, !llvm.loop !14

while.end:                                        ; preds = %land.end
  ret void
}